LIBRARY     BBLIBC.DLL

EXPORTS
    ??0B_BitMap24@@QAE@ABV0@@Z     @1   ; ??0B_BitMap24@@QAE@ABV0@@Z
    ??0B_BitMap24@@QAE@ABVB_BitMap@@@Z @2   ; ??0B_BitMap24@@QAE@ABVB_BitMap@@@Z
    ??0B_BitMap24@@QAE@HH@Z        @3   ; ??0B_BitMap24@@QAE@HH@Z
    ??0B_BitMap@@QAE@ABV0@@Z       @4   ; ??0B_BitMap@@QAE@ABV0@@Z
    ??0B_BitMap@@QAE@W4BitMapType@0@ABVB_BitMap24@@@Z @5   ; ??0B_BitMap@@QAE@W4BitMapType@0@ABVB_BitMap24@@@Z
    ??0B_BitMap@@QAE@W4BitMapType@0@IIPBVB_Pal@@@Z @6   ; ??0B_BitMap@@QAE@W4BitMapType@0@IIPBVB_Pal@@@Z
    ??0B_BitMap@@QAE@XZ            @7   ; ??0B_BitMap@@QAE@XZ
    ??0B_ChannelOFile@@QAE@ABV0@@Z @8   ; ??0B_ChannelOFile@@QAE@ABV0@@Z
    ??0B_ChannelOFile@@QAE@VB_Name@@PBD@Z @9   ; ??0B_ChannelOFile@@QAE@VB_Name@@PBD@Z
    ??0B_Color@@QAE@ABV0@@Z        @10  ; ??0B_Color@@QAE@ABV0@@Z
    ??0B_Color@@QAE@EEE@Z          @11  ; ??0B_Color@@QAE@EEE@Z
    ??0B_Color@@QAE@XZ             @12  ; ??0B_Color@@QAE@XZ
    ??0B_IDataFile@@QAE@PBDH@Z     @13  ; ??0B_IDataFile@@QAE@PBDH@Z
    ??0B_IDataFile@@QAE@XZ         @14  ; ??0B_IDataFile@@QAE@XZ
    ??0B_List@@QAE@ABV0@@Z         @15  ; ??0B_List@@QAE@ABV0@@Z
    ??0B_List@@QAE@PAVB_ListElement@@@Z @16  ; ??0B_List@@QAE@PAVB_ListElement@@@Z
    ??0B_ListElement@@QAE@ABV0@@Z  @17  ; ??0B_ListElement@@QAE@ABV0@@Z
    ??0B_ListElement@@QAE@XZ       @18  ; ??0B_ListElement@@QAE@XZ
    ??0B_MeshEdge@@QAE@III@Z       @19  ; ??0B_MeshEdge@@QAE@III@Z
    ??0B_MeshEdge@@QAE@XZ          @20  ; ??0B_MeshEdge@@QAE@XZ
    ??0B_MessageChannel@@QAE@AAVB_Name@@@Z @21  ; ??0B_MessageChannel@@QAE@AAVB_Name@@@Z
    ??0B_MessageChannel@@QAE@ABV0@@Z @22  ; ??0B_MessageChannel@@QAE@ABV0@@Z
    ??0B_MessageChannel@@QAE@XZ    @23  ; ??0B_MessageChannel@@QAE@XZ
    ??0B_MessageManager@@QAE@XZ    @24  ; ??0B_MessageManager@@QAE@XZ
    ??0B_Name@@QAE@ABV0@@Z         @25  ; ??0B_Name@@QAE@ABV0@@Z
    ??0B_Name@@QAE@I@Z             @26  ; ??0B_Name@@QAE@I@Z
    ??0B_Name@@QAE@PBD@Z           @27  ; ??0B_Name@@QAE@PBD@Z
    ??0B_Name@@QAE@XZ              @28  ; ??0B_Name@@QAE@XZ
    ??0B_NamedObj@@QAE@ABV0@@Z     @29  ; ??0B_NamedObj@@QAE@ABV0@@Z
    ??0B_NamedObj@@QAE@ABVB_Name@@@Z @30  ; ??0B_NamedObj@@QAE@ABVB_Name@@@Z
    ??0B_NamedObj@@QAE@XZ          @31  ; ??0B_NamedObj@@QAE@XZ
    ??0B_ODataFile@@QAE@PBDH@Z     @32  ; ??0B_ODataFile@@QAE@PBDH@Z
    ??0B_ObjDscr@@QAE@XZ           @33  ; ??0B_ObjDscr@@QAE@XZ
    ??0B_Pal@@QAE@ABV0@@Z          @34  ; ??0B_Pal@@QAE@ABV0@@Z
    ??0B_Pal@@QAE@XZ               @35  ; ??0B_Pal@@QAE@XZ
    ??0B_ParticleGType@@QAE@ABVB_Name@@0KI@Z @36  ; ??0B_ParticleGType@@QAE@ABVB_Name@@0KI@Z
    ??0B_RDataLight@@QAE@MMMM@Z    @37  ; ??0B_RDataLight@@QAE@MMMM@Z
    ??0B_RDataLight@@QAE@XZ        @38  ; ??0B_RDataLight@@QAE@XZ
    ??0B_RDataTriangle@@QAE@XZ     @39  ; ??0B_RDataTriangle@@QAE@XZ
    ??0B_RItem@@QAE@K@Z            @40  ; ??0B_RItem@@QAE@K@Z
    ??0B_Resource@@QAE@ABV0@@Z     @41  ; ??0B_Resource@@QAE@ABV0@@Z
    ??0B_Resource@@QAE@ABVB_Name@@@Z @42  ; ??0B_Resource@@QAE@ABVB_Name@@@Z
    ??0B_Resource@@QAE@XZ          @43  ; ??0B_Resource@@QAE@XZ
    ??0B_ResourceManager@@QAE@XZ   @44  ; ??0B_ResourceManager@@QAE@XZ
    ??1B_BitMap24@@UAE@XZ          @45  ; ??1B_BitMap24@@UAE@XZ
    ??1B_BitMap@@UAE@XZ            @46  ; ??1B_BitMap@@UAE@XZ
    ??1B_ChannelOFile@@UAE@XZ      @47  ; ??1B_ChannelOFile@@UAE@XZ
    ??1B_ElementCSV@@UAE@XZ        @48  ; ??1B_ElementCSV@@UAE@XZ
    ??1B_IDataFile@@QAE@XZ         @49  ; ??1B_IDataFile@@QAE@XZ
    ??1B_List@@UAE@XZ              @50  ; ??1B_List@@UAE@XZ
    ??1B_ListElement@@UAE@XZ       @51  ; ??1B_ListElement@@UAE@XZ
    ??1B_MessageChannel@@UAE@XZ    @52  ; ??1B_MessageChannel@@UAE@XZ
    ??1B_MessageManager@@QAE@XZ    @53  ; ??1B_MessageManager@@QAE@XZ
    ??1B_Name@@QAE@XZ              @54  ; ??1B_Name@@QAE@XZ
    ??1B_NamedObj@@UAE@XZ          @55  ; ??1B_NamedObj@@UAE@XZ
    ??1B_ODataFile@@QAE@XZ         @56  ; ??1B_ODataFile@@QAE@XZ
    ??1B_ObjDscr@@UAE@XZ           @57  ; ??1B_ObjDscr@@UAE@XZ
    ??1B_ParticleGType@@UAE@XZ     @58  ; ??1B_ParticleGType@@UAE@XZ
    ??1B_Resource@@UAE@XZ          @59  ; ??1B_Resource@@UAE@XZ
    ??1B_ResourceManager@@QAE@XZ   @60  ; ??1B_ResourceManager@@QAE@XZ
    ??4B_BitMap24@@QAEAAV0@ABV0@@Z @61  ; ??4B_BitMap24@@QAEAAV0@ABV0@@Z
    ??4B_BitMap@@QAEAAV0@ABV0@@Z   @62  ; ??4B_BitMap@@QAEAAV0@ABV0@@Z
    ??4B_ChannelOFile@@QAEAAV0@ABV0@@Z @63  ; ??4B_ChannelOFile@@QAEAAV0@ABV0@@Z
    ??4B_Color@@QAEAAV0@ABV0@@Z    @64  ; ??4B_Color@@QAEAAV0@ABV0@@Z
    ??4B_IDataFile@@QAEAAV0@ABV0@@Z @65  ; ??4B_IDataFile@@QAEAAV0@ABV0@@Z
    ??4B_List@@QAEAAV0@ABV0@@Z     @66  ; ??4B_List@@QAEAAV0@ABV0@@Z
    ??4B_ListElement@@QAEAAV0@ABV0@@Z @67  ; ??4B_ListElement@@QAEAAV0@ABV0@@Z
    ??4B_MeshEdge@@QAEAAV0@ABV0@@Z @68  ; ??4B_MeshEdge@@QAEAAV0@ABV0@@Z
    ??4B_MessageChannel@@QAEAAV0@ABV0@@Z @69  ; ??4B_MessageChannel@@QAEAAV0@ABV0@@Z
    ??4B_MessageManager@@QAEAAV0@ABV0@@Z @70  ; ??4B_MessageManager@@QAEAAV0@ABV0@@Z
    ??4B_Name@@QAEAAV0@ABV0@@Z     @71  ; ??4B_Name@@QAEAAV0@ABV0@@Z
    ??4B_NamedObj@@QAEAAV0@ABV0@@Z @72  ; ??4B_NamedObj@@QAEAAV0@ABV0@@Z
    ??4B_ODataFile@@QAEAAV0@ABV0@@Z @73  ; ??4B_ODataFile@@QAEAAV0@ABV0@@Z
    ??4B_Pal@@QAEAAV0@ABV0@@Z      @74  ; ??4B_Pal@@QAEAAV0@ABV0@@Z
    ??4B_RDataLight@@QAEAAV0@ABV0@@Z @75  ; ??4B_RDataLight@@QAEAAV0@ABV0@@Z
    ??4B_RDataTriangle@@QAEAAV0@ABV0@@Z @76  ; ??4B_RDataTriangle@@QAEAAV0@ABV0@@Z
    ??4B_RItem@@QAEAAV0@ABV0@@Z    @77  ; ??4B_RItem@@QAEAAV0@ABV0@@Z
    ??4B_Resource@@QAEAAV0@ABV0@@Z @78  ; ??4B_Resource@@QAEAAV0@ABV0@@Z
    ??4B_ResourceManager@@QAEAAV0@ABV0@@Z @79  ; ??4B_ResourceManager@@QAEAAV0@ABV0@@Z
    ??5@YAAAVB_IDataFile@@AAV0@AAD@Z @80  ; ??5@YAAAVB_IDataFile@@AAV0@AAD@Z
    ??5@YAAAVB_IDataFile@@AAV0@AAE@Z @81  ; ??5@YAAAVB_IDataFile@@AAV0@AAE@Z
    ??5@YAAAVB_IDataFile@@AAV0@AAF@Z @82  ; ??5@YAAAVB_IDataFile@@AAV0@AAF@Z
    ??5@YAAAVB_IDataFile@@AAV0@AAG@Z @83  ; ??5@YAAAVB_IDataFile@@AAV0@AAG@Z
    ??5@YAAAVB_IDataFile@@AAV0@AAH@Z @84  ; ??5@YAAAVB_IDataFile@@AAV0@AAH@Z
    ??5@YAAAVB_IDataFile@@AAV0@AAI@Z @85  ; ??5@YAAAVB_IDataFile@@AAV0@AAI@Z
    ??5@YAAAVB_IDataFile@@AAV0@AAJ@Z @86  ; ??5@YAAAVB_IDataFile@@AAV0@AAJ@Z
    ??5@YAAAVB_IDataFile@@AAV0@AAK@Z @87  ; ??5@YAAAVB_IDataFile@@AAV0@AAK@Z
    ??5@YAAAVB_IDataFile@@AAV0@AAM@Z @88  ; ??5@YAAAVB_IDataFile@@AAV0@AAM@Z
    ??5@YAAAVB_IDataFile@@AAV0@AAN@Z @89  ; ??5@YAAAVB_IDataFile@@AAV0@AAN@Z
    ??5@YAAAVB_IDataFile@@AAV0@AAVB_BitMap24@@@Z @90  ; ??5@YAAAVB_IDataFile@@AAV0@AAVB_BitMap24@@@Z
    ??5@YAAAVB_IDataFile@@AAV0@AAVB_BitMap@@@Z @91  ; ??5@YAAAVB_IDataFile@@AAV0@AAVB_BitMap@@@Z
    ??5@YAAAVB_IDataFile@@AAV0@AAVB_Color@@@Z @92  ; ??5@YAAAVB_IDataFile@@AAV0@AAVB_Color@@@Z
    ??5@YAAAVB_IDataFile@@AAV0@AAVB_Name@@@Z @93  ; ??5@YAAAVB_IDataFile@@AAV0@AAVB_Name@@@Z
    ??5@YAAAVB_IDataFile@@AAV0@AAVB_NamedObj@@@Z @94  ; ??5@YAAAVB_IDataFile@@AAV0@AAVB_NamedObj@@@Z
    ??5@YAAAVB_IDataFile@@AAV0@AAVB_ParticleGType@@@Z @95  ; ??5@YAAAVB_IDataFile@@AAV0@AAVB_ParticleGType@@@Z
    ??6@YAAAVB_MessageManager@@AAV0@D@Z @96  ; ??6@YAAAVB_MessageManager@@AAV0@D@Z
    ??6@YAAAVB_MessageManager@@AAV0@PBD@Z @97  ; ??6@YAAAVB_MessageManager@@AAV0@PBD@Z
    ??6@YAAAVB_ODataFile@@AAV0@ABD@Z @98  ; ??6@YAAAVB_ODataFile@@AAV0@ABD@Z
    ??6@YAAAVB_ODataFile@@AAV0@ABE@Z @99  ; ??6@YAAAVB_ODataFile@@AAV0@ABE@Z
    ??6@YAAAVB_ODataFile@@AAV0@ABF@Z @100 ; ??6@YAAAVB_ODataFile@@AAV0@ABF@Z
    ??6@YAAAVB_ODataFile@@AAV0@ABG@Z @101 ; ??6@YAAAVB_ODataFile@@AAV0@ABG@Z
    ??6@YAAAVB_ODataFile@@AAV0@ABH@Z @102 ; ??6@YAAAVB_ODataFile@@AAV0@ABH@Z
    ??6@YAAAVB_ODataFile@@AAV0@ABI@Z @103 ; ??6@YAAAVB_ODataFile@@AAV0@ABI@Z
    ??6@YAAAVB_ODataFile@@AAV0@ABJ@Z @104 ; ??6@YAAAVB_ODataFile@@AAV0@ABJ@Z
    ??6@YAAAVB_ODataFile@@AAV0@ABK@Z @105 ; ??6@YAAAVB_ODataFile@@AAV0@ABK@Z
    ??6@YAAAVB_ODataFile@@AAV0@ABM@Z @106 ; ??6@YAAAVB_ODataFile@@AAV0@ABM@Z
    ??6@YAAAVB_ODataFile@@AAV0@ABN@Z @107 ; ??6@YAAAVB_ODataFile@@AAV0@ABN@Z
    ??6@YAAAVB_ODataFile@@AAV0@ABVB_BitMap24@@@Z @108 ; ??6@YAAAVB_ODataFile@@AAV0@ABVB_BitMap24@@@Z
    ??6@YAAAVB_ODataFile@@AAV0@ABVB_BitMap@@@Z @109 ; ??6@YAAAVB_ODataFile@@AAV0@ABVB_BitMap@@@Z
    ??6@YAAAVB_ODataFile@@AAV0@ABVB_Color@@@Z @110 ; ??6@YAAAVB_ODataFile@@AAV0@ABVB_Color@@@Z
    ??6@YAAAVB_ODataFile@@AAV0@ABVB_Name@@@Z @111 ; ??6@YAAAVB_ODataFile@@AAV0@ABVB_Name@@@Z
    ??6@YAAAVB_ODataFile@@AAV0@ABVB_NamedObj@@@Z @112 ; ??6@YAAAVB_ODataFile@@AAV0@ABVB_NamedObj@@@Z
    ??6@YAAAVB_ODataFile@@AAV0@ABVB_ParticleGType@@@Z @113 ; ??6@YAAAVB_ODataFile@@AAV0@ABVB_ParticleGType@@@Z
    ??6@YAAAVB_ODataFile@@AAV0@PBD@Z @114 ; ??6@YAAAVB_ODataFile@@AAV0@PBD@Z
    ??8B_Color@@QAEIABV0@@Z        @115 ; ??8B_Color@@QAEIABV0@@Z
    ??8B_MeshEdge@@QBEIABV0@@Z     @116 ; ??8B_MeshEdge@@QBEIABV0@@Z
    ??8B_MessageChannel@@QBEHABV0@@Z @117 ; ??8B_MessageChannel@@QBEHABV0@@Z
    ??8B_Name@@QBEIABV0@@Z         @118 ; ??8B_Name@@QBEIABV0@@Z
    ??8B_Name@@QBEIPBD@Z           @119 ; ??8B_Name@@QBEIPBD@Z
    ??9B_Color@@QAEIABV0@@Z        @120 ; ??9B_Color@@QAEIABV0@@Z
    ??9B_Name@@QBEIABV0@@Z         @121 ; ??9B_Name@@QBEIABV0@@Z
    ??9B_Name@@QBEIPBD@Z           @122 ; ??9B_Name@@QBEIPBD@Z
    ??BB_Name@@QBEPBDXZ            @123 ; ??BB_Name@@QBEPBDXZ
    ??DB_Color@@QBE?AV0@M@Z        @124 ; ??DB_Color@@QBE?AV0@M@Z
    ??H@YA?AVB_Name@@ABV0@0@Z      @125 ; ??H@YA?AVB_Name@@ABV0@0@Z
    ??H@YA?AVB_Name@@ABV0@PBD@Z    @126 ; ??H@YA?AVB_Name@@ABV0@PBD@Z
    ??H@YA?AVB_Name@@PBDABV0@@Z    @127 ; ??H@YA?AVB_Name@@PBDABV0@@Z
    ??HB_Color@@QBE?AV0@ABV0@@Z    @128 ; ??HB_Color@@QBE?AV0@ABV0@@Z
    ??KB_Color@@QBE?AV0@M@Z        @129 ; ??KB_Color@@QBE?AV0@M@Z
    ??MB_Name@@QBEIABV0@@Z         @130 ; ??MB_Name@@QBEIABV0@@Z
    ??OB_Name@@QBEIABV0@@Z         @131 ; ??OB_Name@@QBEIABV0@@Z
    ??YB_Name@@QAEABV0@ABV0@@Z     @132 ; ??YB_Name@@QAEABV0@ABV0@@Z
    ??YB_Name@@QAEABV0@D@Z         @133 ; ??YB_Name@@QAEABV0@D@Z
    ??YB_Name@@QAEABV0@PBD@Z       @134 ; ??YB_Name@@QAEABV0@PBD@Z
    ??_7B_BitMap24@@6B@            @135 ; ??_7B_BitMap24@@6B@
    ??_7B_BitMap@@6B@              @136 ; ??_7B_BitMap@@6B@
    ??_7B_ChannelOFile@@6B@        @137 ; ??_7B_ChannelOFile@@6B@
    ??_7B_Color@@6B@               @138 ; ??_7B_Color@@6B@
    ??_7B_List@@6B@                @139 ; ??_7B_List@@6B@
    ??_7B_ListElement@@6B@         @140 ; ??_7B_ListElement@@6B@
    ??_7B_MessageChannel@@6B@      @141 ; ??_7B_MessageChannel@@6B@
    ??_7B_NamedObj@@6B@            @142 ; ??_7B_NamedObj@@6B@
    ??_7B_Resource@@6B@            @143 ; ??_7B_Resource@@6B@
    ??_C@_00A@?$AA@                @144 ; ??_C@_00A@?$AA@
    ??_FB_BitMap24@@QAEXXZ         @145 ; ??_FB_BitMap24@@QAEXXZ
    ??_FB_List@@QAEXXZ             @146 ; ??_FB_List@@QAEXXZ
    ?Add@B_List@@QAEIPAVB_ListElement@@@Z @147 ; ?Add@B_List@@QAEIPAVB_ListElement@@@Z
    ?Add@B_MessageManager@@QAEIPAVB_MessageChannel@@@Z @148 ; ?Add@B_MessageManager@@QAEIPAVB_MessageChannel@@@Z
    ?AddAfter@B_List@@QAEIPAVB_ListElement@@0@Z @149 ; ?AddAfter@B_List@@QAEIPAVB_ListElement@@0@Z
    ?AddAutoResource@B_ResourceManager@@QAEIABVB_Name@@PAVB_Resource@@H@Z @150 ; ?AddAutoResource@B_ResourceManager@@QAEIABVB_Name@@PAVB_Resource@@H@Z
    ?AddBefore@B_List@@QAEIPAVB_ListElement@@0@Z @151 ; ?AddBefore@B_List@@QAEIPAVB_ListElement@@0@Z
    ?AddBodLink@B_ResourceManager@@QAEXPBDH0H@Z @152 ; ?AddBodLink@B_ResourceManager@@QAEXPBDH0H@Z
    ?AddFile@B_ResourceManager@@AAEIABVB_Name@@@Z @153 ; ?AddFile@B_ResourceManager@@AAEIABVB_Name@@@Z
    ?B_csvs@@3V?$B_NDataBase@UB_ElementCSV@@@@A @154 ; ?B_csvs@@3V?$B_NDataBase@UB_ElementCSV@@@@A
    ?B_resource_manager@@3VB_ResourceManager@@A @155 ; ?B_resource_manager@@3VB_ResourceManager@@A
    ?BitMap24DataList@B_BitMap24@@0V?$B_Array@VB_BitMap24@@@@A @156 ; ?BitMap24DataList@B_BitMap24@@0V?$B_Array@VB_BitMap24@@@@A
    ?BytesPerTexel@B_BitMap@@QBEHXZ @157 ; ?BytesPerTexel@B_BitMap@@QBEHXZ
    ?CallPythonObject@@YAPAUPyObject@@PAU1@0@Z @158 ; ?CallPythonObject@@YAPAUPyObject@@PAU1@0@Z
    ?ChangeRGBOrder@B_BitMap24@@QAEXXZ @159 ; ?ChangeRGBOrder@B_BitMap24@@QAEXXZ
    ?CheckErrors@@3HA              @160 ; ?CheckErrors@@3HA
    ?CheckSum@B_ObjDscr@@UBEKXZ    @161 ; ?CheckSum@B_ObjDscr@@UBEKXZ
    ?ClassId@B_ObjDscr@@UBEGXZ     @162 ; ?ClassId@B_ObjDscr@@UBEGXZ
    ?Clean@B_ResourceManager@@QAEXXZ @163 ; ?Clean@B_ResourceManager@@QAEXXZ
    ?Clear@B_BitMap24@@QAEXXZ      @164 ; ?Clear@B_BitMap24@@QAEXXZ
    ?ClearBitMap24Data@B_BitMap24@@SAXXZ @165 ; ?ClearBitMap24Data@B_BitMap24@@SAXXZ
    ?Close@B_ChannelOFile@@UAEIXZ  @166 ; ?Close@B_ChannelOFile@@UAEIXZ
    ?Close@B_IDataFile@@QAEXXZ     @167 ; ?Close@B_IDataFile@@QAEXXZ
    ?Close@B_MessageChannel@@UAEIXZ @168 ; ?Close@B_MessageChannel@@UAEIXZ
    ?CloseChannel@B_MessageManager@@QAEIABVB_Name@@@Z @169 ; ?CloseChannel@B_MessageManager@@QAEIABVB_Name@@@Z
    ?CompareNoCase@B_Name@@QBEIABV1@@Z @170 ; ?CompareNoCase@B_Name@@QBEIABV1@@Z
    ?CompareNoCase@B_Name@@QBEIPBD@Z @171 ; ?CompareNoCase@B_Name@@QBEIPBD@Z
    ?DefChannel@B_MessageManager@@0PAVB_MessageChannel@@A @172 ; ?DefChannel@B_MessageManager@@0PAVB_MessageChannel@@A
    ?DeleteList@B_List@@QAEXI@Z    @173 ; ?DeleteList@B_List@@QAEXI@Z
    ?DisconnectChannel@B_MessageManager@@QAEPAVB_MessageChannel@@ABVB_Name@@@Z @174 ; ?DisconnectChannel@B_MessageManager@@QAEPAVB_MessageChannel@@ABVB_Name@@@Z
    ?DistanceTo@B_Color@@QAEMABV1@@Z @175 ; ?DistanceTo@B_Color@@QAEMABV1@@Z
    ?Draw@B_ObjDscr@@QAEXPAVB_3DRasterDevice@@MMMMMH@Z @176 ; ?Draw@B_ObjDscr@@QAEXPAVB_3DRasterDevice@@MMMMMH@Z
    ?EdgeFaceGrp@B_ObjDscr@@QAEEI@Z @177 ; ?EdgeFaceGrp@B_ObjDscr@@QAEEI@Z
    ?Eof@B_IDataFile@@QAEHXZ       @178 ; ?Eof@B_IDataFile@@QAEHXZ
    ?EscribeArchivoRAW@B_BitMap24@@QBEXPBD@Z @179 ; ?EscribeArchivoRAW@B_BitMap24@@QBEXPBD@Z
    ?Exists@B_List@@QAEIPBVB_ListElement@@@Z @180 ; ?Exists@B_List@@QAEIPBVB_ListElement@@@Z
    ?Flush@B_ODataFile@@QAEXXZ     @181 ; ?Flush@B_ODataFile@@QAEXXZ
    ?FreeResource@B_ResourceManager@@QAEXPAVB_Resource@@@Z @182 ; ?FreeResource@B_ResourceManager@@QAEXPAVB_Resource@@@Z
    ?GetAt@B_List@@QAEPAVB_ListElement@@I@Z @183 ; ?GetAt@B_List@@QAEPAVB_ListElement@@I@Z
    ?GetBits@B_BitMap24@@QBEPBEXZ  @184 ; ?GetBits@B_BitMap24@@QBEPBEXZ
    ?GetBlue@B_Pal@@QBEEI@Z        @185 ; ?GetBlue@B_Pal@@QBEEI@Z
    ?GetConfigDirectory@@YAPBDXZ   @186 ; ?GetConfigDirectory@@YAPBDXZ
    ?GetCurrentLanguage@@YAPBDXZ   @187 ; ?GetCurrentLanguage@@YAPBDXZ
    ?GetDimension@B_BitMap24@@QBEXAAH0@Z @188 ; ?GetDimension@B_BitMap24@@QBEXAAH0@Z
    ?GetFile@B_ResourceManager@@QAEPBDI@Z @189 ; ?GetFile@B_ResourceManager@@QAEPBDI@Z
    ?GetFileName@B_IDataFile@@QBEPBDXZ @190 ; ?GetFileName@B_IDataFile@@QBEPBDXZ
    ?GetFileName@B_ODataFile@@QBEPBDXZ @191 ; ?GetFileName@B_ODataFile@@QBEPBDXZ
    ?GetFirst@B_List@@QAEPAVB_ListElement@@XZ @192 ; ?GetFirst@B_List@@QAEPAVB_ListElement@@XZ
    ?GetGreen@B_Pal@@QBEEI@Z       @193 ; ?GetGreen@B_Pal@@QBEEI@Z
    ?GetIndex@B_Pal@@QBEIEEEI@Z    @194 ; ?GetIndex@B_Pal@@QBEIEEEI@Z
    ?GetLast@B_List@@QAEPAVB_ListElement@@XZ @195 ; ?GetLast@B_List@@QAEPAVB_ListElement@@XZ
    ?GetList@B_ListElement@@QAEPAVB_List@@XZ @196 ; ?GetList@B_ListElement@@QAEPAVB_List@@XZ
    ?GetNext@B_ListElement@@QAEPAV1@XZ @197 ; ?GetNext@B_ListElement@@QAEPAV1@XZ
    ?GetPixelAt@B_BitMap24@@QBEIHHAAVB_Color@@@Z @198 ; ?GetPixelAt@B_BitMap24@@QBEIHHAAVB_Color@@@Z
    ?GetPrev@B_ListElement@@QAEPAV1@XZ @199 ; ?GetPrev@B_ListElement@@QAEPAV1@XZ
    ?GetRed@B_Pal@@QBEEI@Z         @200 ; ?GetRed@B_Pal@@QBEEI@Z
    ?GetResource@B_ResourceManager@@QAEPAVB_Resource@@GABVB_Name@@@Z @201 ; ?GetResource@B_ResourceManager@@QAEPAVB_Resource@@GABVB_Name@@@Z
    ?GetResource@B_ResourceManager@@QAEPAVB_Resource@@GI@Z @202 ; ?GetResource@B_ResourceManager@@QAEPAVB_Resource@@GI@Z
    ?GetResourceFile@B_ResourceManager@@QAEPBDGI@Z @203 ; ?GetResourceFile@B_ResourceManager@@QAEPBDGI@Z
    ?GetResourceIndex@B_ResourceManager@@QAEIGABVB_Name@@@Z @204 ; ?GetResourceIndex@B_ResourceManager@@QAEIGABVB_Name@@@Z
    ?GetResourceName@B_ResourceManager@@QAEPBDGI@Z @205 ; ?GetResourceName@B_ResourceManager@@QAEPBDGI@Z
    ?GetVtxNode@B_ObjDscr@@QAEHI@Z @206 ; ?GetVtxNode@B_ObjDscr@@QAEHI@Z
    ?GetnFiles@B_ResourceManager@@QAEIXZ @207 ; ?GetnFiles@B_ResourceManager@@QAEIXZ
    ?GetnOpenFiles@B_IDataFile@@SAHXZ @208 ; ?GetnOpenFiles@B_IDataFile@@SAHXZ
    ?GetnOpenInputFiles@@YAHXZ     @209 ; ?GetnOpenInputFiles@@YAHXZ
    ?GetnOpenedFiles@B_IDataFile@@SAHXZ @210 ; ?GetnOpenedFiles@B_IDataFile@@SAHXZ
    ?GetnOpenedInputFiles@@YAHXZ   @211 ; ?GetnOpenedInputFiles@@YAHXZ
    ?Id@B_Name@@QBEABV1@XZ         @212 ; ?Id@B_Name@@QBEABV1@XZ
    ?Id@B_NamedObj@@QBEABVB_Name@@XZ @213 ; ?Id@B_NamedObj@@QBEABVB_Name@@XZ
    ?Id@B_Pal@@QAEABV1@XZ          @214 ; ?Id@B_Pal@@QAEABV1@XZ
    ?Interp@B_RDataLight@@QAEXNAAV1@N0@Z @215 ; ?Interp@B_RDataLight@@QAEXNAAV1@N0@Z
    ?IsResourceLinked@B_ResourceManager@@QAEHHPBD@Z @216 ; ?IsResourceLinked@B_ResourceManager@@QAEHHPBD@Z
    ?IsResourceLoaded@B_ResourceManager@@QAEHHH@Z @217 ; ?IsResourceLoaded@B_ResourceManager@@QAEHHH@Z
    ?IsResourceLoaded@B_ResourceManager@@QAEHHPBD@Z @218 ; ?IsResourceLoaded@B_ResourceManager@@QAEHHPBD@Z
    ?Left@B_Name@@QBE?AV1@I@Z      @219 ; ?Left@B_Name@@QBE?AV1@I@Z
    ?Length@B_IDataFile@@QBEJXZ    @220 ; ?Length@B_IDataFile@@QBEJXZ
    ?Length@B_Name@@QBEIXZ         @221 ; ?Length@B_Name@@QBEIXZ
    ?Load@B_Resource@@SAPAV1@AAVB_IDataFile@@G@Z @222 ; ?Load@B_Resource@@SAPAV1@AAVB_IDataFile@@G@Z
    ?LoadPacked@B_ObjDscr@@QAEIAAVB_IDataFile@@@Z @223 ; ?LoadPacked@B_ObjDscr@@QAEIAAVB_IDataFile@@@Z
    ?LoadPackedData@B_ResourceManager@@QAEHHPBD@Z @224 ; ?LoadPackedData@B_ResourceManager@@QAEHHPBD@Z
    ?LoadResourceToMemory@B_ResourceManager@@QAEIGPBD@Z @225 ; ?LoadResourceToMemory@B_ResourceManager@@QAEIGPBD@Z
    ?LocateResourceIn@B_ResourceManager@@QAEIABVB_Name@@PBV2@H@Z @226 ; ?LocateResourceIn@B_ResourceManager@@QAEIABVB_Name@@PBV2@H@Z
    ?LocateResourcesIn@B_ResourceManager@@AAEIABVB_Name@@AAVB_IDataFile@@@Z @227 ; ?LocateResourcesIn@B_ResourceManager@@AAEIABVB_Name@@AAVB_IDataFile@@@Z
    ?MakeCons@B_Color@@UAEXXZ      @228 ; ?MakeCons@B_Color@@UAEXXZ
    ?Message@B_ChannelOFile@@UAEIPBD@Z @229 ; ?Message@B_ChannelOFile@@UAEIPBD@Z
    ?Message@B_MessageChannel@@UAEIPBD@Z @230 ; ?Message@B_MessageChannel@@UAEIPBD@Z
    ?Message@B_MessageManager@@QAEID@Z @231 ; ?Message@B_MessageManager@@QAEID@Z
    ?Message@B_MessageManager@@QAEIDABVB_Name@@@Z @232 ; ?Message@B_MessageManager@@QAEIDABVB_Name@@@Z
    ?Message@B_MessageManager@@QAEIPBD@Z @233 ; ?Message@B_MessageManager@@QAEIPBD@Z
    ?Message@B_MessageManager@@QAEIPBDABVB_Name@@@Z @234 ; ?Message@B_MessageManager@@QAEIPBDABVB_Name@@@Z
    ?NResources@B_ResourceManager@@QAEIG@Z @235 ; ?NResources@B_ResourceManager@@QAEIG@Z
    ?OK@B_IDataFile@@QBEIXZ        @236 ; ?OK@B_IDataFile@@QBEIXZ
    ?OK@B_ODataFile@@QBEIXZ        @237 ; ?OK@B_ODataFile@@QBEIXZ
    ?OnOpenFunc@B_IDataFile@@0PAUPyObject@@A @238 ; ?OnOpenFunc@B_IDataFile@@0PAUPyObject@@A
    ?Open@B_ChannelOFile@@UAEIXZ   @239 ; ?Open@B_ChannelOFile@@UAEIXZ
    ?Open@B_IDataFile@@QAEXPBDH@Z  @240 ; ?Open@B_IDataFile@@QAEXPBDH@Z
    ?Open@B_MessageChannel@@UAEIXZ @241 ; ?Open@B_MessageChannel@@UAEIXZ
    ?OpenChannel@B_MessageManager@@QAEIABVB_Name@@@Z @242 ; ?OpenChannel@B_MessageManager@@QAEIABVB_Name@@@Z
    ?OutputWin32Error@@YAXPBD@Z    @243 ; ?OutputWin32Error@@YAXPBD@Z
    ?Peek@B_IDataFile@@QAEEXZ      @244 ; ?Peek@B_IDataFile@@QAEEXZ
    ?Read@B_IDataFile@@QAEXPAXI@Z  @245 ; ?Read@B_IDataFile@@QAEXPAXI@Z
    ?ReadCSV@@YAIPBDPAV?$B_NDataBase@UB_ElementCSV@@@@@Z @246 ; ?ReadCSV@@YAIPBDPAV?$B_NDataBase@UB_ElementCSV@@@@@Z
    ?ReadCacheBlock@B_IDataFile@@AAEIXZ @247 ; ?ReadCacheBlock@B_IDataFile@@AAEIXZ
    ?ReadFromBMP@B_BitMap24@@QAEHPBD@Z @248 ; ?ReadFromBMP@B_BitMap24@@QAEHPBD@Z
    ?ReadFromFile@B_BitMap24@@QAEHPBD@Z @249 ; ?ReadFromFile@B_BitMap24@@QAEHPBD@Z
    ?ReadFromJPEG@B_BitMap24@@QAEHPBD@Z @250 ; ?ReadFromJPEG@B_BitMap24@@QAEHPBD@Z
    ?Remove@B_List@@QAEIPAVB_ListElement@@I@Z @251 ; ?Remove@B_List@@QAEIPAVB_ListElement@@I@Z
    ?RemoveFirst@B_List@@QAEPAVB_ListElement@@I@Z @252 ; ?RemoveFirst@B_List@@QAEPAVB_ListElement@@I@Z
    ?RemoveLast@B_List@@QAEPAVB_ListElement@@I@Z @253 ; ?RemoveLast@B_List@@QAEPAVB_ListElement@@I@Z
    ?RemoveOnOpenFunc@B_IDataFile@@SAXXZ @254 ; ?RemoveOnOpenFunc@B_IDataFile@@SAXXZ
    ?RemoveOnOpenInputFileFunc@@YAXXZ @255 ; ?RemoveOnOpenInputFileFunc@@YAXXZ
    ?ResetnOpenedFiles@B_IDataFile@@SAXXZ @256 ; ?ResetnOpenedFiles@B_IDataFile@@SAXXZ
    ?ResetnOpenedInputFiles@@YAXXZ @257 ; ?ResetnOpenedInputFiles@@YAXXZ
    ?Right@B_Name@@QBE?AV1@I@Z     @258 ; ?Right@B_Name@@QBE?AV1@I@Z
    ?Save@B_Resource@@SAXAAVB_ODataFile@@PBV1@@Z @259 ; ?Save@B_Resource@@SAXAAVB_ODataFile@@PBV1@@Z
    ?SavePacked@B_ObjDscr@@QAEIAAVB_ODataFile@@@Z @260 ; ?SavePacked@B_ObjDscr@@QAEIAAVB_ODataFile@@@Z
    ?SavePackedData@B_ResourceManager@@QAEHHPBD@Z @261 ; ?SavePackedData@B_ResourceManager@@QAEHHPBD@Z
    ?SaveResource@B_ResourceManager@@QAEIGIPBD@Z @262 ; ?SaveResource@B_ResourceManager@@QAEIGIPBD@Z
    ?SaveToBMP@B_BitMap24@@QBEHPBD@Z @263 ; ?SaveToBMP@B_BitMap24@@QBEHPBD@Z
    ?SaveToBMPSized@B_BitMap24@@QBEHPBDHH@Z @264 ; ?SaveToBMPSized@B_BitMap24@@QBEHPBDHH@Z
    ?SaveToFile@B_BitMap24@@QBEHPBDH@Z @265 ; ?SaveToFile@B_BitMap24@@QBEHPBDH@Z
    ?SaveToJPEG@B_BitMap24@@QBEHPBDH@Z @266 ; ?SaveToJPEG@B_BitMap24@@QBEHPBDH@Z
    ?Seek@B_IDataFile@@QAEJJH@Z    @267 ; ?Seek@B_IDataFile@@QAEJJH@Z
    ?Seek@B_ODataFile@@QAEJJ@Z     @268 ; ?Seek@B_ODataFile@@QAEJJ@Z
    ?SerialSize@B_ObjDscr@@UBEIXZ  @269 ; ?SerialSize@B_ObjDscr@@UBEIXZ
    ?SetBits@B_BitMap24@@QAEIHHPBD0@Z @270 ; ?SetBits@B_BitMap24@@QAEIHHPBD0@Z
    ?SetBlue@B_Pal@@QAEXIE@Z       @271 ; ?SetBlue@B_Pal@@QAEXIE@Z
    ?SetColor@B_Color@@QAEXEEE@Z   @272 ; ?SetColor@B_Color@@QAEXEEE@Z
    ?SetGreen@B_Pal@@QAEXIE@Z      @273 ; ?SetGreen@B_Pal@@QAEXIE@Z
    ?SetOnOpenFunc@B_IDataFile@@SAHPAUPyObject@@@Z @274 ; ?SetOnOpenFunc@B_IDataFile@@SAHPAUPyObject@@@Z
    ?SetOnOpenInputFileFunc@@YAHPAUPyObject@@@Z @275 ; ?SetOnOpenInputFileFunc@@YAHPAUPyObject@@@Z
    ?SetRed@B_Pal@@QAEXIE@Z        @276 ; ?SetRed@B_Pal@@QAEXIE@Z
    ?SetUpBSP@B_ObjDscr@@QAEXXZ    @277 ; ?SetUpBSP@B_ObjDscr@@QAEXXZ
    ?SetUpEdges@B_ObjDscr@@QAEXXZ  @278 ; ?SetUpEdges@B_ObjDscr@@QAEXXZ
    ?SetUpInertialT@B_ObjDscr@@QAEXXZ @279 ; ?SetUpInertialT@B_ObjDscr@@QAEXXZ
    ?SetUpNormals@B_ObjDscr@@QAEXXZ @280 ; ?SetUpNormals@B_ObjDscr@@QAEXXZ
    ?String@B_Name@@QBEQADXZ       @281 ; ?String@B_Name@@QBEQADXZ
    ?Tell@B_IDataFile@@QAEJXZ      @282 ; ?Tell@B_IDataFile@@QAEJXZ
    ?UpCase@B_Name@@QAEXXZ         @283 ; ?UpCase@B_Name@@QAEXXZ
    ?Write@B_ODataFile@@QAEXPBXI@Z @284 ; ?Write@B_ODataFile@@QAEXPBXI@Z
    ?WriteCacheBlock@B_ODataFile@@AAEXXZ @285 ; ?WriteCacheBlock@B_ODataFile@@AAEXXZ
    ?mout@@3VB_MessageManager@@A   @286 ; ?mout@@3VB_MessageManager@@A
    ?nElements@B_List@@QAEIXZ      @287 ; ?nElements@B_List@@QAEIXZ
    ?n_open_files@B_IDataFile@@0HA @288 ; ?n_open_files@B_IDataFile@@0HA
    ?n_opened_files@B_IDataFile@@0HA @289 ; ?n_opened_files@B_IDataFile@@0HA
    ?vararg@@YAPBDPBDZZ            @290 ; ?vararg@@YAPBDPBDZZ
    initBBLibc                     @291 ; initBBLibc
